target datalayout = "e-m:e-p270:32:32-p271:32:32-p272:64:64-i64:64-i128:128-f80:128-n8:16:32:64-S128"
target triple = "x86_64-pc-linux-gnu"

%struct.JumbleState = type { ptr, i64, ptr, i32, i32, i32 }
%struct.Expr = type { i32 }
%struct.ScalarArrayOpExpr = type { %struct.Expr, i32, i32, i32, i32, i8, i32, ptr, i32 }

; Function Attrs: inlinehint nounwind uwtable
define internal i64 @UInt64GetDatum(i64 noundef %0) #4 {
  %2 = alloca i64, align 8
  store i64 %0, ptr %2, align 8
  %3 = load i64, ptr %2, align 8
  ret i64 %3
}

; Function Attrs: inlinehint nounwind uwtable
define internal i64 @DatumGetUInt64(i64 noundef %0) #4 {
  %2 = alloca i64, align 8
  store i64 %0, ptr %2, align 8
  %3 = load i64, ptr %2, align 8
  ret i64 %3
}

; Function Attrs: inlinehint nounwind uwtable
define internal i64 @hash_any_extended(ptr noundef %0, i32 noundef %1, i64 noundef %2) #4 {
  %4 = alloca ptr, align 8
  %5 = alloca i32, align 4
  %6 = alloca i64, align 8
  store ptr %0, ptr %4, align 8
  store i32 %1, ptr %5, align 4
  store i64 %2, ptr %6, align 8
  %7 = load ptr, ptr %4, align 8
  %8 = load i32, ptr %5, align 4
  %9 = load i64, ptr %6, align 8
  %10 = call i64 @hash_bytes_extended(ptr noundef %7, i32 noundef %8, i64 noundef %9)
  %11 = call i64 @UInt64GetDatum(i64 noundef %10)
  ret i64 %11
}

; Function Attrs: nounwind uwtable
define internal void @AppendJumble(ptr noundef %0, ptr noundef %1, i64 noundef %2) #0 {
  %4 = alloca ptr, align 8
  %5 = alloca ptr, align 8
  %6 = alloca i64, align 8
  %7 = alloca ptr, align 8
  %8 = alloca i64, align 8
  %9 = alloca i64, align 8
  %10 = alloca i64, align 8
  store ptr %0, ptr %4, align 8
  store ptr %1, ptr %5, align 8
  store i64 %2, ptr %6, align 8
  call void @llvm.lifetime.start.p0(i64 8, ptr %7) #8
  %11 = load ptr, ptr %4, align 8
  %12 = getelementptr inbounds nuw %struct.JumbleState, ptr %11, i32 0, i32 0
  %13 = load ptr, ptr %12, align 8
  store ptr %13, ptr %7, align 8
  call void @llvm.lifetime.start.p0(i64 8, ptr %8) #8
  %14 = load ptr, ptr %4, align 8
  %15 = getelementptr inbounds nuw %struct.JumbleState, ptr %14, i32 0, i32 1
  %16 = load i64, ptr %15, align 8
  store i64 %16, ptr %8, align 8
  br label %17

17:                                               ; preds = %38, %3
  %18 = load i64, ptr %6, align 8
  %19 = icmp ugt i64 %18, 0
  br i1 %19, label %20, label %54

20:                                               ; preds = %17
  call void @llvm.lifetime.start.p0(i64 8, ptr %9) #8
  %21 = load i64, ptr %8, align 8
  %22 = icmp uge i64 %21, 1024
  br i1 %22, label %23, label %28

23:                                               ; preds = %20
  call void @llvm.lifetime.start.p0(i64 8, ptr %10) #8
  %24 = load ptr, ptr %7, align 8
  %25 = call i64 @hash_any_extended(ptr noundef %24, i32 noundef 1024, i64 noundef 0)
  %26 = call i64 @DatumGetUInt64(i64 noundef %25)
  store i64 %26, ptr %10, align 8
  %27 = load ptr, ptr %7, align 8
  call void @llvm.memcpy.p0.p0.i64(ptr align 1 %27, ptr align 8 %10, i64 8, i1 false)
  store i64 8, ptr %8, align 8
  call void @llvm.lifetime.end.p0(i64 8, ptr %10) #8
  br label %28

28:                                               ; preds = %23, %20
  %29 = load i64, ptr %6, align 8
  %30 = load i64, ptr %8, align 8
  %31 = sub i64 1024, %30
  %32 = icmp ult i64 %29, %31
  br i1 %32, label %33, label %35

33:                                               ; preds = %28
  %34 = load i64, ptr %6, align 8
  br label %38

35:                                               ; preds = %28
  %36 = load i64, ptr %8, align 8
  %37 = sub i64 1024, %36
  br label %38

38:                                               ; preds = %35, %33
  %39 = phi i64 [ %34, %33 ], [ %37, %35 ]
  store i64 %39, ptr %9, align 8
  %40 = load ptr, ptr %7, align 8
  %41 = load i64, ptr %8, align 8
  %42 = getelementptr inbounds nuw i8, ptr %40, i64 %41
  %43 = load ptr, ptr %5, align 8
  %44 = load i64, ptr %9, align 8
  call void @llvm.memcpy.p0.p0.i64(ptr align 1 %42, ptr align 1 %43, i64 %44, i1 false)
  %45 = load i64, ptr %9, align 8
  %46 = load i64, ptr %8, align 8
  %47 = add i64 %46, %45
  store i64 %47, ptr %8, align 8
  %48 = load i64, ptr %9, align 8
  %49 = load ptr, ptr %5, align 8
  %50 = getelementptr inbounds nuw i8, ptr %49, i64 %48
  store ptr %50, ptr %5, align 8
  %51 = load i64, ptr %9, align 8
  %52 = load i64, ptr %6, align 8
  %53 = sub i64 %52, %51
  store i64 %53, ptr %6, align 8
  call void @llvm.lifetime.end.p0(i64 8, ptr %9) #8
  br label %17, !llvm.loop !7

54:                                               ; preds = %17
  %55 = load i64, ptr %8, align 8
  %56 = load ptr, ptr %4, align 8
  %57 = getelementptr inbounds nuw %struct.JumbleState, ptr %56, i32 0, i32 1
  store i64 %55, ptr %57, align 8
  call void @llvm.lifetime.end.p0(i64 8, ptr %8) #8
  call void @llvm.lifetime.end.p0(i64 8, ptr %7) #8
  ret void
}

; Function Attrs: nounwind uwtable
define internal void @_jumbleScalarArrayOpExpr(ptr noundef %0, ptr noundef %1) #0 {
  %3 = alloca ptr, align 8
  %4 = alloca ptr, align 8
  %5 = alloca ptr, align 8
  store ptr %0, ptr %3, align 8
  store ptr %1, ptr %4, align 8
  call void @llvm.lifetime.start.p0(i64 8, ptr %5) #8
  %6 = load ptr, ptr %4, align 8
  store ptr %6, ptr %5, align 8
  %7 = load ptr, ptr %3, align 8
  %8 = load ptr, ptr %5, align 8
  %9 = getelementptr inbounds nuw %struct.ScalarArrayOpExpr, ptr %8, i32 0, i32 1
  call void @AppendJumble(ptr noundef %7, ptr noundef %9, i64 noundef 4)
  %10 = load ptr, ptr %3, align 8
  %11 = load ptr, ptr %5, align 8
  %12 = getelementptr inbounds nuw %struct.ScalarArrayOpExpr, ptr %11, i32 0, i32 5
  call void @AppendJumble(ptr noundef %10, ptr noundef %12, i64 noundef 1)
  %13 = load ptr, ptr %3, align 8
  %14 = load ptr, ptr %5, align 8
  %15 = getelementptr inbounds nuw %struct.ScalarArrayOpExpr, ptr %14, i32 0, i32 7
  %16 = load ptr, ptr %15, align 8
  call void @_jumbleNode(ptr noundef %13, ptr noundef %16)
  call void @llvm.lifetime.end.p0(i64 8, ptr %5) #8
  ret void
}